; Function Attrs: mustprogress uwtable
define void @_ZN10MainWindow22wrapSetActiveSubWindowEP7QWidget(ptr nocapture noundef nonnull readonly align 8 dereferenceable(1376) %0, ptr noundef %1) local_unnamed_addr #9 align 2 {
  %3 = alloca %class.QMessageLogger, align 8
  %4 = icmp eq ptr %1, null
  br i1 %4, label %.thread, label %5

5:                                                ; preds = %2
  %6 = tail call ptr @__dynamic_cast(ptr nonnull %1, ptr nonnull @_ZTI7QWidget, ptr nonnull @_ZTI13QMdiSubWindow, i64 0) #21
  %.not = icmp eq ptr %6, null
  br i1 %.not, label %.thread, label %7

7:                                                ; preds = %5
  %8 = getelementptr inbounds i8, ptr %0, i64 152
  %9 = load ptr, ptr %8, align 8
  tail call void @_ZN8QMdiArea18setActiveSubWindowEP13QMdiSubWindow(ptr noundef nonnull align 8 dereferenceable(48) %9, ptr noundef nonnull %6)
  br label %12

.thread:                                          ; preds = %2, %5
  store i32 2, ptr %3, align 8
  %10 = getelementptr inbounds i8, ptr %3, i64 4
  %11 = getelementptr inbounds i8, ptr %3, i64 24
  call void @llvm.memset.p0.i64(ptr noundef nonnull align 4 dereferenceable(20) %10, i8 0, i64 20, i1 false)
  store ptr @.str.176, ptr %11, align 8
  call void (ptr, ptr, ...) @_ZNK14QMessageLogger5debugEPKcz(ptr noundef nonnull align 8 dereferenceable(32) %3, ptr noundef nonnull @.str.259)
  br label %12

12:                                               ; preds = %.thread, %7
  ret void
}